target datalayout = "e-m:e-p270:32:32-p271:32:32-p272:64:64-i64:64-i128:128-f80:128-n8:16:32:64-S128"
target triple = "x86_64-pc-linux-gnu"

%struct.CVodeMemRec = type { ptr, double, ptr, ptr, i32, i32, double, double, ptr, i32, i32, ptr, ptr, i32, i32, ptr, i32, i32, double, double, ptr, i32, i32, i32, i32, ptr, ptr, ptr, i32, i32, ptr, ptr, ptr, i32, double, i32, i32, double, ptr, ptr, ptr, i32, ptr, ptr, i32, i32, i32, double, ptr, ptr, ptr, [13 x ptr], ptr, ptr, ptr, ptr, ptr, ptr, ptr, ptr, ptr, [13 x ptr], ptr, ptr, ptr, ptr, [13 x ptr], ptr, ptr, ptr, ptr, ptr, i32, [13 x ptr], ptr, ptr, ptr, ptr, ptr, i32, i32, double, i32, i32, i32, i32, i32, double, double, double, double, double, double, double, double, [14 x double], [6 x double], [13 x double], double, double, double, double, double, double, double, double, i32, double, double, i32, double, double, ptr, i32, i64, i32, i32, i32, double, double, double, double, double, double, double, double, double, double, double, double, i64, i32, i64, i64, i64, i64, i64, i64, i64, i64, i64, ptr, i64, i64, ptr, i64, i64, ptr, i64, i64, i64, i64, i64, i64, i32, double, double, double, i64, i64, i64, i64, i64, i64, ptr, i32, ptr, i32, ptr, i32, ptr, i32, i32, i64, i32, ptr, i32, ptr, ptr, ptr, ptr, ptr, ptr, i32, i32, ptr, ptr, ptr, ptr, ptr, i64, double, i32, i32, i64, double, double, double, i32, i32, double, i32, i32, i32, i32, i32, i32, i32, i32, i32, i32, i32, i32, i32, i32, i32, i32, ptr, i64, i32, [6 x [4 x double]], i32, i64, ptr, i32, ptr, ptr, double, double, double, ptr, ptr, ptr, double, double, i32, i32, i64, ptr, i32, ptr, i32, i32, [13 x double], ptr, ptr, ptr, i32, ptr, i32 }

; Function Attrs: nounwind uwtable
define void @CVodeSensFree(ptr noundef %0) #0 {
  %2 = alloca ptr, align 8
  %3 = alloca ptr, align 8
  %4 = alloca i32, align 4
  store ptr %0, ptr %2, align 8, !tbaa !153
  call void @llvm.lifetime.start.p0(i64 8, ptr %3) #10
  %5 = load ptr, ptr %2, align 8, !tbaa !153
  %6 = icmp eq ptr %5, null
  br i1 %6, label %7, label %8

7:                                                ; preds = %1
  store i32 1, ptr %4, align 4
  br label %148

8:                                                ; preds = %1
  %9 = load ptr, ptr %2, align 8, !tbaa !153
  store ptr %9, ptr %3, align 8, !tbaa !10
  %10 = load ptr, ptr %3, align 8, !tbaa !10
  %11 = getelementptr inbounds nuw %struct.CVodeMemRec, ptr %10, i32 0, i32 213
  %12 = load i32, ptr %11, align 8, !tbaa !119
  %13 = icmp ne i32 %12, 0
  br i1 %13, label %14, label %48

14:                                               ; preds = %8
  %15 = load ptr, ptr %3, align 8, !tbaa !10
  %16 = getelementptr inbounds nuw %struct.CVodeMemRec, ptr %15, i32 0, i32 72
  %17 = load i32, ptr %16, align 8, !tbaa !232
  %18 = icmp ne i32 %17, 0
  br i1 %18, label %19, label %42

19:                                               ; preds = %14
  %20 = load ptr, ptr %3, align 8, !tbaa !10
  %21 = getelementptr inbounds nuw %struct.CVodeMemRec, ptr %20, i32 0, i32 112
  %22 = load ptr, ptr %21, align 8, !tbaa !92
  call void @free(ptr noundef %22) #10
  %23 = load ptr, ptr %3, align 8, !tbaa !10
  %24 = getelementptr inbounds nuw %struct.CVodeMemRec, ptr %23, i32 0, i32 112
  store ptr null, ptr %24, align 8, !tbaa !92
  %25 = load ptr, ptr %3, align 8, !tbaa !10
  %26 = getelementptr inbounds nuw %struct.CVodeMemRec, ptr %25, i32 0, i32 141
  %27 = load ptr, ptr %26, align 8, !tbaa !93
  call void @free(ptr noundef %27) #10
  %28 = load ptr, ptr %3, align 8, !tbaa !10
  %29 = getelementptr inbounds nuw %struct.CVodeMemRec, ptr %28, i32 0, i32 141
  store ptr null, ptr %29, align 8, !tbaa !93
  %30 = load ptr, ptr %3, align 8, !tbaa !10
  %31 = getelementptr inbounds nuw %struct.CVodeMemRec, ptr %30, i32 0, i32 144
  %32 = load ptr, ptr %31, align 8, !tbaa !94
  call void @free(ptr noundef %32) #10
  %33 = load ptr, ptr %3, align 8, !tbaa !10
  %34 = getelementptr inbounds nuw %struct.CVodeMemRec, ptr %33, i32 0, i32 144
  store ptr null, ptr %34, align 8, !tbaa !94
  %35 = load ptr, ptr %3, align 8, !tbaa !10
  %36 = getelementptr inbounds nuw %struct.CVodeMemRec, ptr %35, i32 0, i32 147
  %37 = load ptr, ptr %36, align 8, !tbaa !95
  call void @free(ptr noundef %37) #10
  %38 = load ptr, ptr %3, align 8, !tbaa !10
  %39 = getelementptr inbounds nuw %struct.CVodeMemRec, ptr %38, i32 0, i32 147
  store ptr null, ptr %39, align 8, !tbaa !95
  %40 = load ptr, ptr %3, align 8, !tbaa !10
  %41 = getelementptr inbounds nuw %struct.CVodeMemRec, ptr %40, i32 0, i32 72
  store i32 0, ptr %41, align 8, !tbaa !232
  br label %42

42:                                               ; preds = %19, %14
  %43 = load ptr, ptr %3, align 8, !tbaa !10
  call void @cvSensFreeVectors(ptr noundef %43)
  %44 = load ptr, ptr %3, align 8, !tbaa !10
  %45 = getelementptr inbounds nuw %struct.CVodeMemRec, ptr %44, i32 0, i32 213
  store i32 0, ptr %45, align 8, !tbaa !119
  %46 = load ptr, ptr %3, align 8, !tbaa !10
  %47 = getelementptr inbounds nuw %struct.CVodeMemRec, ptr %46, i32 0, i32 22
  store i32 0, ptr %47, align 4, !tbaa !80
  br label %48

48:                                               ; preds = %42, %8
  %49 = load ptr, ptr %3, align 8, !tbaa !10
  %50 = getelementptr inbounds nuw %struct.CVodeMemRec, ptr %49, i32 0, i32 183
  %51 = load i32, ptr %50, align 8, !tbaa !131
  %52 = icmp ne i32 %51, 0
  br i1 %52, label %53, label %71

53:                                               ; preds = %48
  %54 = load ptr, ptr %3, align 8, !tbaa !10
  %55 = getelementptr inbounds nuw %struct.CVodeMemRec, ptr %54, i32 0, i32 177
  %56 = load ptr, ptr %55, align 8, !tbaa !128
  call void @N_VDestroy(ptr noundef %56)
  %57 = load ptr, ptr %3, align 8, !tbaa !10
  %58 = getelementptr inbounds nuw %struct.CVodeMemRec, ptr %57, i32 0, i32 177
  store ptr null, ptr %58, align 8, !tbaa !128
  %59 = load ptr, ptr %3, align 8, !tbaa !10
  %60 = getelementptr inbounds nuw %struct.CVodeMemRec, ptr %59, i32 0, i32 178
  %61 = load ptr, ptr %60, align 8, !tbaa !129
  call void @N_VDestroy(ptr noundef %61)
  %62 = load ptr, ptr %3, align 8, !tbaa !10
  %63 = getelementptr inbounds nuw %struct.CVodeMemRec, ptr %62, i32 0, i32 178
  store ptr null, ptr %63, align 8, !tbaa !129
  %64 = load ptr, ptr %3, align 8, !tbaa !10
  %65 = getelementptr inbounds nuw %struct.CVodeMemRec, ptr %64, i32 0, i32 179
  %66 = load ptr, ptr %65, align 8, !tbaa !130
  call void @N_VDestroy(ptr noundef %66)
  %67 = load ptr, ptr %3, align 8, !tbaa !10
  %68 = getelementptr inbounds nuw %struct.CVodeMemRec, ptr %67, i32 0, i32 179
  store ptr null, ptr %68, align 8, !tbaa !130
  %69 = load ptr, ptr %3, align 8, !tbaa !10
  %70 = getelementptr inbounds nuw %struct.CVodeMemRec, ptr %69, i32 0, i32 183
  store i32 0, ptr %70, align 8, !tbaa !131
  br label %71

71:                                               ; preds = %53, %48
  %72 = load ptr, ptr %3, align 8, !tbaa !10
  %73 = getelementptr inbounds nuw %struct.CVodeMemRec, ptr %72, i32 0, i32 184
  %74 = load i32, ptr %73, align 4, !tbaa !137
  %75 = icmp ne i32 %74, 0
  br i1 %75, label %76, label %94

76:                                               ; preds = %71
  %77 = load ptr, ptr %3, align 8, !tbaa !10
  %78 = getelementptr inbounds nuw %struct.CVodeMemRec, ptr %77, i32 0, i32 180
  %79 = load ptr, ptr %78, align 8, !tbaa !134
  call void @N_VDestroy(ptr noundef %79)
  %80 = load ptr, ptr %3, align 8, !tbaa !10
  %81 = getelementptr inbounds nuw %struct.CVodeMemRec, ptr %80, i32 0, i32 180
  store ptr null, ptr %81, align 8, !tbaa !134
  %82 = load ptr, ptr %3, align 8, !tbaa !10
  %83 = getelementptr inbounds nuw %struct.CVodeMemRec, ptr %82, i32 0, i32 181
  %84 = load ptr, ptr %83, align 8, !tbaa !135
  call void @N_VDestroy(ptr noundef %84)
  %85 = load ptr, ptr %3, align 8, !tbaa !10
  %86 = getelementptr inbounds nuw %struct.CVodeMemRec, ptr %85, i32 0, i32 181
  store ptr null, ptr %86, align 8, !tbaa !135
  %87 = load ptr, ptr %3, align 8, !tbaa !10
  %88 = getelementptr inbounds nuw %struct.CVodeMemRec, ptr %87, i32 0, i32 182
  %89 = load ptr, ptr %88, align 8, !tbaa !136
  call void @N_VDestroy(ptr noundef %89)
  %90 = load ptr, ptr %3, align 8, !tbaa !10
  %91 = getelementptr inbounds nuw %struct.CVodeMemRec, ptr %90, i32 0, i32 182
  store ptr null, ptr %91, align 8, !tbaa !136
  %92 = load ptr, ptr %3, align 8, !tbaa !10
  %93 = getelementptr inbounds nuw %struct.CVodeMemRec, ptr %92, i32 0, i32 184
  store i32 0, ptr %93, align 4, !tbaa !137
  br label %94

94:                                               ; preds = %76, %71
  %95 = load ptr, ptr %3, align 8, !tbaa !10
  %96 = getelementptr inbounds nuw %struct.CVodeMemRec, ptr %95, i32 0, i32 167
  %97 = load i32, ptr %96, align 8, !tbaa !127
  %98 = icmp ne i32 %97, 0
  br i1 %98, label %99, label %108

99:                                               ; preds = %94
  %100 = load ptr, ptr %3, align 8, !tbaa !10
  %101 = getelementptr inbounds nuw %struct.CVodeMemRec, ptr %100, i32 0, i32 166
  %102 = load ptr, ptr %101, align 8, !tbaa !126
  %103 = call i32 @SUNNonlinSolFree(ptr noundef %102)
  %104 = load ptr, ptr %3, align 8, !tbaa !10
  %105 = getelementptr inbounds nuw %struct.CVodeMemRec, ptr %104, i32 0, i32 167
  store i32 0, ptr %105, align 8, !tbaa !127
  %106 = load ptr, ptr %3, align 8, !tbaa !10
  %107 = getelementptr inbounds nuw %struct.CVodeMemRec, ptr %106, i32 0, i32 166
  store ptr null, ptr %107, align 8, !tbaa !126
  br label %108

108:                                              ; preds = %99, %94
  %109 = load ptr, ptr %3, align 8, !tbaa !10
  %110 = getelementptr inbounds nuw %struct.CVodeMemRec, ptr %109, i32 0, i32 169
  %111 = load i32, ptr %110, align 8, !tbaa !133
  %112 = icmp ne i32 %111, 0
  br i1 %112, label %113, label %122

113:                                              ; preds = %108
  %114 = load ptr, ptr %3, align 8, !tbaa !10
  %115 = getelementptr inbounds nuw %struct.CVodeMemRec, ptr %114, i32 0, i32 168
  %116 = load ptr, ptr %115, align 8, !tbaa !132
  %117 = call i32 @SUNNonlinSolFree(ptr noundef %116)
  %118 = load ptr, ptr %3, align 8, !tbaa !10
  %119 = getelementptr inbounds nuw %struct.CVodeMemRec, ptr %118, i32 0, i32 169
  store i32 0, ptr %119, align 8, !tbaa !133
  %120 = load ptr, ptr %3, align 8, !tbaa !10
  %121 = getelementptr inbounds nuw %struct.CVodeMemRec, ptr %120, i32 0, i32 168
  store ptr null, ptr %121, align 8, !tbaa !132
  br label %122

122:                                              ; preds = %113, %108
  %123 = load ptr, ptr %3, align 8, !tbaa !10
  %124 = getelementptr inbounds nuw %struct.CVodeMemRec, ptr %123, i32 0, i32 171
  %125 = load i32, ptr %124, align 8, !tbaa !139
  %126 = icmp ne i32 %125, 0
  br i1 %126, label %127, label %136

127:                                              ; preds = %122
  %128 = load ptr, ptr %3, align 8, !tbaa !10
  %129 = getelementptr inbounds nuw %struct.CVodeMemRec, ptr %128, i32 0, i32 170
  %130 = load ptr, ptr %129, align 8, !tbaa !138
  %131 = call i32 @SUNNonlinSolFree(ptr noundef %130)
  %132 = load ptr, ptr %3, align 8, !tbaa !10
  %133 = getelementptr inbounds nuw %struct.CVodeMemRec, ptr %132, i32 0, i32 171
  store i32 0, ptr %133, align 8, !tbaa !139
  %134 = load ptr, ptr %3, align 8, !tbaa !10
  %135 = getelementptr inbounds nuw %struct.CVodeMemRec, ptr %134, i32 0, i32 170
  store ptr null, ptr %135, align 8, !tbaa !138
  br label %136

136:                                              ; preds = %127, %122
  %137 = load ptr, ptr %3, align 8, !tbaa !10
  %138 = getelementptr inbounds nuw %struct.CVodeMemRec, ptr %137, i32 0, i32 40
  %139 = load ptr, ptr %138, align 8, !tbaa !97
  %140 = icmp ne ptr %139, null
  br i1 %140, label %141, label %147

141:                                              ; preds = %136
  %142 = load ptr, ptr %3, align 8, !tbaa !10
  %143 = getelementptr inbounds nuw %struct.CVodeMemRec, ptr %142, i32 0, i32 40
  %144 = load ptr, ptr %143, align 8, !tbaa !97
  call void @free(ptr noundef %144) #10
  %145 = load ptr, ptr %3, align 8, !tbaa !10
  %146 = getelementptr inbounds nuw %struct.CVodeMemRec, ptr %145, i32 0, i32 40
  store ptr null, ptr %146, align 8, !tbaa !97
  br label %147

147:                                              ; preds = %141, %136
  store i32 0, ptr %4, align 4
  br label %148

148:                                              ; preds = %147, %7
  call void @llvm.lifetime.end.p0(i64 8, ptr %3) #10
  %149 = load i32, ptr %4, align 4
  switch i32 %149, label %151 [
    i32 0, label %150
    i32 1, label %150
  ]

150:                                              ; preds = %148, %148
  ret void

151:                                              ; preds = %148
  unreachable
}