; Function Attrs: nounwind uwtable
define void @CVodeSensFree(ptr noundef captures(address_is_null) %0) local_unnamed_addr #0 {
  %2 = icmp eq ptr %0, null
  br i1 %2, label %65, label %3

3:                                                ; preds = %1
  %4 = getelementptr inbounds nuw i8, ptr %0, i64 2144
  %5 = load i32, ptr %4, align 8, !tbaa !155
  %.not = icmp eq i32 %5, 0
  br i1 %.not, label %20, label %6

6:                                                ; preds = %3
  %7 = getelementptr inbounds nuw i8, ptr %0, i64 792
  %8 = load i32, ptr %7, align 8, !tbaa !159
  %.not48 = icmp eq i32 %8, 0
  br i1 %.not48, label %18, label %9

9:                                                ; preds = %6
  %10 = getelementptr inbounds nuw i8, ptr %0, i64 1424
  %11 = load ptr, ptr %10, align 8, !tbaa !178
  tail call void @free(ptr noundef %11) #13
  store ptr null, ptr %10, align 8, !tbaa !178
  %12 = getelementptr inbounds nuw i8, ptr %0, i64 1648
  %13 = load ptr, ptr %12, align 8, !tbaa !179
  tail call void @free(ptr noundef %13) #13
  store ptr null, ptr %12, align 8, !tbaa !179
  %14 = getelementptr inbounds nuw i8, ptr %0, i64 1672
  %15 = load ptr, ptr %14, align 8, !tbaa !180
  tail call void @free(ptr noundef %15) #13
  store ptr null, ptr %14, align 8, !tbaa !180
  %16 = getelementptr inbounds nuw i8, ptr %0, i64 1696
  %17 = load ptr, ptr %16, align 8, !tbaa !181
  tail call void @free(ptr noundef %17) #13
  store ptr null, ptr %16, align 8, !tbaa !181
  store i32 0, ptr %7, align 8, !tbaa !159
  br label %18

18:                                               ; preds = %9, %6
  tail call fastcc void @cvSensFreeVectors(ptr noundef %0)
  store i32 0, ptr %4, align 8, !tbaa !155
  %19 = getelementptr inbounds nuw i8, ptr %0, i64 140
  store i32 0, ptr %19, align 4, !tbaa !166
  br label %20

20:                                               ; preds = %18, %3
  %21 = getelementptr inbounds nuw i8, ptr %0, i64 1976
  %22 = load i32, ptr %21, align 8, !tbaa !290
  %.not49 = icmp eq i32 %22, 0
  br i1 %.not49, label %30, label %23

23:                                               ; preds = %20
  %24 = getelementptr inbounds nuw i8, ptr %0, i64 1928
  %25 = load ptr, ptr %24, align 8, !tbaa !263
  tail call void @N_VDestroy(ptr noundef %25) #13
  store ptr null, ptr %24, align 8, !tbaa !263
  %26 = getelementptr inbounds nuw i8, ptr %0, i64 1936
  %27 = load ptr, ptr %26, align 8, !tbaa !256
  tail call void @N_VDestroy(ptr noundef %27) #13
  store ptr null, ptr %26, align 8, !tbaa !256
  %28 = getelementptr inbounds nuw i8, ptr %0, i64 1944
  %29 = load ptr, ptr %28, align 8, !tbaa !264
  tail call void @N_VDestroy(ptr noundef %29) #13
  store ptr null, ptr %28, align 8, !tbaa !264
  store i32 0, ptr %21, align 8, !tbaa !290
  br label %30

30:                                               ; preds = %23, %20
  %31 = getelementptr inbounds nuw i8, ptr %0, i64 1980
  %32 = load i32, ptr %31, align 4, !tbaa !291
  %.not50 = icmp eq i32 %32, 0
  br i1 %.not50, label %40, label %33

33:                                               ; preds = %30
  %34 = getelementptr inbounds nuw i8, ptr %0, i64 1952
  %35 = load ptr, ptr %34, align 8, !tbaa !272
  tail call void @N_VDestroy(ptr noundef %35) #13
  store ptr null, ptr %34, align 8, !tbaa !272
  %36 = getelementptr inbounds nuw i8, ptr %0, i64 1960
  %37 = load ptr, ptr %36, align 8, !tbaa !270
  tail call void @N_VDestroy(ptr noundef %37) #13
  store ptr null, ptr %36, align 8, !tbaa !270
  %38 = getelementptr inbounds nuw i8, ptr %0, i64 1968
  %39 = load ptr, ptr %38, align 8, !tbaa !273
  tail call void @N_VDestroy(ptr noundef %39) #13
  store ptr null, ptr %38, align 8, !tbaa !273
  store i32 0, ptr %31, align 4, !tbaa !291
  br label %40

40:                                               ; preds = %33, %30
  %41 = getelementptr inbounds nuw i8, ptr %0, i64 1856
  %42 = load i32, ptr %41, align 8, !tbaa !167
  %.not51 = icmp eq i32 %42, 0
  br i1 %.not51, label %47, label %43

43:                                               ; preds = %40
  %44 = getelementptr inbounds nuw i8, ptr %0, i64 1848
  %45 = load ptr, ptr %44, align 8, !tbaa !183
  %46 = tail call i32 @SUNNonlinSolFree(ptr noundef %45) #13
  store i32 0, ptr %41, align 8, !tbaa !167
  store ptr null, ptr %44, align 8, !tbaa !183
  br label %47

47:                                               ; preds = %43, %40
  %48 = getelementptr inbounds nuw i8, ptr %0, i64 1872
  %49 = load i32, ptr %48, align 8, !tbaa !168
  %.not52 = icmp eq i32 %49, 0
  br i1 %.not52, label %54, label %50

50:                                               ; preds = %47
  %51 = getelementptr inbounds nuw i8, ptr %0, i64 1864
  %52 = load ptr, ptr %51, align 8, !tbaa !184
  %53 = tail call i32 @SUNNonlinSolFree(ptr noundef %52) #13
  store i32 0, ptr %48, align 8, !tbaa !168
  store ptr null, ptr %51, align 8, !tbaa !184
  br label %54

54:                                               ; preds = %50, %47
  %55 = getelementptr inbounds nuw i8, ptr %0, i64 1888
  %56 = load i32, ptr %55, align 8, !tbaa !182
  %.not53 = icmp eq i32 %56, 0
  br i1 %.not53, label %61, label %57

57:                                               ; preds = %54
  %58 = getelementptr inbounds nuw i8, ptr %0, i64 1880
  %59 = load ptr, ptr %58, align 8, !tbaa !185
  %60 = tail call i32 @SUNNonlinSolFree(ptr noundef %59) #13
  store i32 0, ptr %55, align 8, !tbaa !182
  store ptr null, ptr %58, align 8, !tbaa !185
  br label %61

61:                                               ; preds = %57, %54
  %62 = getelementptr inbounds nuw i8, ptr %0, i64 256
  %63 = load ptr, ptr %62, align 8, !tbaa !188
  %.not54 = icmp eq ptr %63, null
  br i1 %.not54, label %65, label %64

64:                                               ; preds = %61
  tail call void @free(ptr noundef nonnull %63) #13
  store ptr null, ptr %62, align 8, !tbaa !188
  br label %65

65:                                               ; preds = %61, %64, %1
  ret void
}